target datalayout = "e-m:e-p270:32:32-p271:32:32-p272:64:64-i64:64-i128:128-f80:128-n8:16:32:64-S128"
target triple = "x86_64-unknown-linux-gnu"

%"class.node::inspector::protocol::span" = type { ptr, i64 }
%"struct.node::inspector::protocol::Status" = type { i32, i64 }
%"class.node::inspector::protocol::json::(anonymous namespace)::JsonParser" = type { ptr, i8, ptr, ptr }

; Function Attrs: mustprogress nounwind uwtable
define linkonce_odr dso_local void @_ZN4node9inspector8protocol6StatusC2ENS1_5ErrorEm(ptr noundef nonnull align 8 dereferenceable(16) %this, i32 noundef %error, i64 noundef %pos) unnamed_addr #0 comdat align 2 {
entry:
  %this.addr = alloca ptr, align 8
  %error.addr = alloca i32, align 4
  %pos.addr = alloca i64, align 8
  store ptr %this, ptr %this.addr, align 8
  store i32 %error, ptr %error.addr, align 4
  store i64 %pos, ptr %pos.addr, align 8
  %this1 = load ptr, ptr %this.addr, align 8
  %error2 = getelementptr inbounds %"struct.node::inspector::protocol::Status", ptr %this1, i32 0, i32 0
  %0 = load i32, ptr %error.addr, align 4
  store i32 %0, ptr %error2, align 8
  %pos3 = getelementptr inbounds %"struct.node::inspector::protocol::Status", ptr %this1, i32 0, i32 1
  %1 = load i64, ptr %pos.addr, align 8
  store i64 %1, ptr %pos3, align 8
  ret void
}

; Function Attrs: mustprogress nounwind uwtable
define internal void @_ZN4node9inspector8protocol4json12_GLOBAL__N_110JsonParserIhE11HandleErrorENS1_5ErrorEPKh(ptr noundef nonnull align 8 dereferenceable(32) %this, i32 noundef %error, ptr noundef %pos) #0 align 2 {
entry:
  %this.addr = alloca ptr, align 8
  %error.addr = alloca i32, align 4
  %pos.addr = alloca ptr, align 8
  %agg.tmp = alloca %"struct.node::inspector::protocol::Status", align 8
  store ptr %this, ptr %this.addr, align 8
  store i32 %error, ptr %error.addr, align 4
  store ptr %pos, ptr %pos.addr, align 8
  %this1 = load ptr, ptr %this.addr, align 8
  %error_ = getelementptr inbounds %"class.node::inspector::protocol::json::(anonymous namespace)::JsonParser", ptr %this1, i32 0, i32 1
  %0 = load i8, ptr %error_, align 8
  %tobool = trunc i8 %0 to i1
  br i1 %tobool, label %if.end, label %if.then

if.then:                                          ; preds = %entry
  %handler_ = getelementptr inbounds %"class.node::inspector::protocol::json::(anonymous namespace)::JsonParser", ptr %this1, i32 0, i32 3
  %1 = load ptr, ptr %handler_, align 8
  %2 = load i32, ptr %error.addr, align 4
  %3 = load ptr, ptr %pos.addr, align 8
  %start_pos_ = getelementptr inbounds %"class.node::inspector::protocol::json::(anonymous namespace)::JsonParser", ptr %this1, i32 0, i32 0
  %4 = load ptr, ptr %start_pos_, align 8
  %sub.ptr.lhs.cast = ptrtoint ptr %3 to i64
  %sub.ptr.rhs.cast = ptrtoint ptr %4 to i64
  %sub.ptr.sub = sub i64 %sub.ptr.lhs.cast, %sub.ptr.rhs.cast
  call void @_ZN4node9inspector8protocol6StatusC2ENS1_5ErrorEm(ptr noundef nonnull align 8 dereferenceable(16) %agg.tmp, i32 noundef %2, i64 noundef %sub.ptr.sub)
  %5 = getelementptr inbounds { i32, i64 }, ptr %agg.tmp, i32 0, i32 0
  %6 = load i32, ptr %5, align 8
  %7 = getelementptr inbounds { i32, i64 }, ptr %agg.tmp, i32 0, i32 1
  %8 = load i64, ptr %7, align 8
  %vtable = load ptr, ptr %1, align 8
  %vfn = getelementptr inbounds ptr, ptr %vtable, i64 13
  %9 = load ptr, ptr %vfn, align 8
  call void %9(ptr noundef nonnull align 8 dereferenceable(8) %1, i32 %6, i64 %8)
  %error_2 = getelementptr inbounds %"class.node::inspector::protocol::json::(anonymous namespace)::JsonParser", ptr %this1, i32 0, i32 1
  store i8 1, ptr %error_2, align 8
  br label %if.end

if.end:                                           ; preds = %if.then, %entry
  ret void
}

; Function Attrs: mustprogress nounwind uwtable
define internal void @_ZN4node9inspector8protocol4json12_GLOBAL__N_110JsonParserIhE5ParseEPKhm(ptr noundef nonnull align 8 dereferenceable(32) %this, ptr noundef %start, i64 noundef %length) #0 align 2 {
entry:
  %this.addr = alloca ptr, align 8
  %start.addr = alloca ptr, align 8
  %length.addr = alloca i64, align 8
  %end = alloca ptr, align 8
  %tokenEnd = alloca ptr, align 8
  store ptr %this, ptr %this.addr, align 8
  store ptr %start, ptr %start.addr, align 8
  store i64 %length, ptr %length.addr, align 8
  %this1 = load ptr, ptr %this.addr, align 8
  %0 = load ptr, ptr %start.addr, align 8
  %start_pos_ = getelementptr inbounds %"class.node::inspector::protocol::json::(anonymous namespace)::JsonParser", ptr %this1, i32 0, i32 0
  store ptr %0, ptr %start_pos_, align 8
  %1 = load ptr, ptr %start.addr, align 8
  %2 = load i64, ptr %length.addr, align 8
  %add.ptr = getelementptr inbounds i8, ptr %1, i64 %2
  store ptr %add.ptr, ptr %end, align 8
  store ptr null, ptr %tokenEnd, align 8
  %3 = load ptr, ptr %start.addr, align 8
  %4 = load ptr, ptr %end, align 8
  call void @_ZN4node9inspector8protocol4json12_GLOBAL__N_110JsonParserIhE10ParseValueEPKhS7_PS7_i(ptr noundef nonnull align 8 dereferenceable(32) %this1, ptr noundef %3, ptr noundef %4, ptr noundef %tokenEnd, i32 noundef 0)
  %error_ = getelementptr inbounds %"class.node::inspector::protocol::json::(anonymous namespace)::JsonParser", ptr %this1, i32 0, i32 1
  %5 = load i8, ptr %error_, align 8
  %tobool = trunc i8 %5 to i1
  br i1 %tobool, label %if.then, label %if.end

if.then:                                          ; preds = %entry
  br label %if.end3

if.end:                                           ; preds = %entry
  %6 = load ptr, ptr %tokenEnd, align 8
  %7 = load ptr, ptr %end, align 8
  %cmp = icmp ne ptr %6, %7
  br i1 %cmp, label %if.then2, label %if.end3

if.then2:                                         ; preds = %if.end
  %8 = load ptr, ptr %tokenEnd, align 8
  call void @_ZN4node9inspector8protocol4json12_GLOBAL__N_110JsonParserIhE11HandleErrorENS1_5ErrorEPKh(ptr noundef nonnull align 8 dereferenceable(32) %this1, i32 noundef 1, ptr noundef %8)
  br label %if.end3

if.end3:                                          ; preds = %if.then2, %if.end, %if.then
  ret void
}

; Function Attrs: mustprogress nounwind uwtable
define linkonce_odr dso_local noundef i64 @_ZNK4node9inspector8protocol4spanIhE4sizeEv(ptr noundef nonnull align 8 dereferenceable(16) %this) #0 comdat align 2 {
entry:
  %this.addr = alloca ptr, align 8
  store ptr %this, ptr %this.addr, align 8
  %this1 = load ptr, ptr %this.addr, align 8
  %size_ = getelementptr inbounds %"class.node::inspector::protocol::span", ptr %this1, i32 0, i32 1
  %0 = load i64, ptr %size_, align 8
  ret i64 %0
}

; Function Attrs: mustprogress nounwind uwtable
define linkonce_odr dso_local noundef ptr @_ZNK4node9inspector8protocol4spanIhE4dataEv(ptr noundef nonnull align 8 dereferenceable(16) %this) #0 comdat align 2 {
entry:
  %this.addr = alloca ptr, align 8
  store ptr %this, ptr %this.addr, align 8
  %this1 = load ptr, ptr %this.addr, align 8
  %data_ = getelementptr inbounds %"class.node::inspector::protocol::span", ptr %this1, i32 0, i32 0
  %0 = load ptr, ptr %data_, align 8
  ret ptr %0
}

; Function Attrs: mustprogress nounwind uwtable
define internal void @_ZN4node9inspector8protocol4json12_GLOBAL__N_110JsonParserIhEC2EPKNS2_8PlatformEPNS1_22StreamingParserHandlerE(ptr noundef nonnull align 8 dereferenceable(32) %this, ptr noundef %platform, ptr noundef %handler) unnamed_addr #0 align 2 {
entry:
  %this.addr = alloca ptr, align 8
  %platform.addr = alloca ptr, align 8
  %handler.addr = alloca ptr, align 8
  store ptr %this, ptr %this.addr, align 8
  store ptr %platform, ptr %platform.addr, align 8
  store ptr %handler, ptr %handler.addr, align 8
  %this1 = load ptr, ptr %this.addr, align 8
  %start_pos_ = getelementptr inbounds %"class.node::inspector::protocol::json::(anonymous namespace)::JsonParser", ptr %this1, i32 0, i32 0
  store ptr null, ptr %start_pos_, align 8
  %error_ = getelementptr inbounds %"class.node::inspector::protocol::json::(anonymous namespace)::JsonParser", ptr %this1, i32 0, i32 1
  store i8 0, ptr %error_, align 8
  %platform_ = getelementptr inbounds %"class.node::inspector::protocol::json::(anonymous namespace)::JsonParser", ptr %this1, i32 0, i32 2
  %0 = load ptr, ptr %platform.addr, align 8
  store ptr %0, ptr %platform_, align 8
  %handler_ = getelementptr inbounds %"class.node::inspector::protocol::json::(anonymous namespace)::JsonParser", ptr %this1, i32 0, i32 3
  %1 = load ptr, ptr %handler.addr, align 8
  store ptr %1, ptr %handler_, align 8
  ret void
}

; Function Attrs: mustprogress nounwind uwtable
define dso_local void @_ZN4node9inspector8protocol4json9ParseJSONERKNS2_8PlatformENS1_4spanIhEEPNS1_22StreamingParserHandlerE(ptr noundef nonnull align 8 dereferenceable(8) %platform, ptr %chars.coerce0, i64 %chars.coerce1, ptr noundef %handler) #0 {
entry:
  %chars = alloca %"class.node::inspector::protocol::span", align 8
  %platform.addr = alloca ptr, align 8
  %handler.addr = alloca ptr, align 8
  %parser = alloca %"class.node::inspector::protocol::json::(anonymous namespace)::JsonParser", align 8
  %0 = getelementptr inbounds { ptr, i64 }, ptr %chars, i32 0, i32 0
  store ptr %chars.coerce0, ptr %0, align 8
  %1 = getelementptr inbounds { ptr, i64 }, ptr %chars, i32 0, i32 1
  store i64 %chars.coerce1, ptr %1, align 8
  store ptr %platform, ptr %platform.addr, align 8
  store ptr %handler, ptr %handler.addr, align 8
  %2 = load ptr, ptr %platform.addr, align 8
  %3 = load ptr, ptr %handler.addr, align 8
  call void @_ZN4node9inspector8protocol4json12_GLOBAL__N_110JsonParserIhEC2EPKNS2_8PlatformEPNS1_22StreamingParserHandlerE(ptr noundef nonnull align 8 dereferenceable(32) %parser, ptr noundef %2, ptr noundef %3)
  %call = call noundef ptr @_ZNK4node9inspector8protocol4spanIhE4dataEv(ptr noundef nonnull align 8 dereferenceable(16) %chars)
  %call1 = call noundef i64 @_ZNK4node9inspector8protocol4spanIhE4sizeEv(ptr noundef nonnull align 8 dereferenceable(16) %chars)
  call void @_ZN4node9inspector8protocol4json12_GLOBAL__N_110JsonParserIhE5ParseEPKhm(ptr noundef nonnull align 8 dereferenceable(32) %parser, ptr noundef %call, i64 noundef %call1)
  ret void
}