; Function Attrs: mustprogress nounwind uwtable
define dso_local void @_ZN4node9inspector8protocol4json9ParseJSONERKNS2_8PlatformENS1_4spanIhEEPNS1_22StreamingParserHandlerE(ptr noundef nonnull align 8 dereferenceable(8) %platform, ptr %chars.coerce0, i64 %chars.coerce1, ptr noundef %handler) local_unnamed_addr #1 {
entry:
  %tokenEnd.i = alloca ptr, align 8
  %parser = alloca %"class.node::inspector::protocol::json::(anonymous namespace)::JsonParser", align 8
  %error_.i = getelementptr inbounds i8, ptr %parser, i64 8
  store i8 0, ptr %error_.i, align 8
  %platform_.i = getelementptr inbounds i8, ptr %parser, i64 16
  store ptr %platform, ptr %platform_.i, align 8
  %handler_.i = getelementptr inbounds i8, ptr %parser, i64 24
  store ptr %handler, ptr %handler_.i, align 8
  call void @llvm.lifetime.start.p0(i64 8, ptr nonnull %tokenEnd.i)
  store ptr %chars.coerce0, ptr %parser, align 8
  %add.ptr.i = getelementptr inbounds i8, ptr %chars.coerce0, i64 %chars.coerce1
  store ptr null, ptr %tokenEnd.i, align 8
  call fastcc void @_ZN4node9inspector8protocol4json12_GLOBAL__N_110JsonParserIhE10ParseValueEPKhS7_PS7_i(ptr noundef nonnull align 8 dereferenceable(32) %parser, ptr noundef %chars.coerce0, ptr noundef %add.ptr.i, ptr noundef nonnull %tokenEnd.i, i32 noundef 0)
  %0 = load i8, ptr %error_.i, align 8
  %1 = and i8 %0, 1
  %tobool.not.i = icmp eq i8 %1, 0
  br i1 %tobool.not.i, label %if.end.i, label %_ZN4node9inspector8protocol4json12_GLOBAL__N_110JsonParserIhE5ParseEPKhm.exit

if.end.i:                                         ; preds = %entry
  %2 = load ptr, ptr %tokenEnd.i, align 8
  %cmp.not.i = icmp eq ptr %2, %add.ptr.i
  br i1 %cmp.not.i, label %_ZN4node9inspector8protocol4json12_GLOBAL__N_110JsonParserIhE5ParseEPKhm.exit, label %_ZN4node9inspector8protocol4json12_GLOBAL__N_110JsonParserIhE11HandleErrorENS1_5ErrorEPKh.exit.i

_ZN4node9inspector8protocol4json12_GLOBAL__N_110JsonParserIhE11HandleErrorENS1_5ErrorEPKh.exit.i: ; preds = %if.end.i
  %3 = load ptr, ptr %handler_.i, align 8
  %4 = load ptr, ptr %parser, align 8
  %sub.ptr.lhs.cast.i.i = ptrtoint ptr %2 to i64
  %sub.ptr.rhs.cast.i.i = ptrtoint ptr %4 to i64
  %sub.ptr.sub.i.i = sub i64 %sub.ptr.lhs.cast.i.i, %sub.ptr.rhs.cast.i.i
  %vtable.i.i = load ptr, ptr %3, align 8
  %vfn.i.i = getelementptr inbounds i8, ptr %vtable.i.i, i64 104
  %5 = load ptr, ptr %vfn.i.i, align 8
  call void %5(ptr noundef nonnull align 8 dereferenceable(8) %3, i32 1, i64 %sub.ptr.sub.i.i) #27
  br label %_ZN4node9inspector8protocol4json12_GLOBAL__N_110JsonParserIhE5ParseEPKhm.exit

_ZN4node9inspector8protocol4json12_GLOBAL__N_110JsonParserIhE5ParseEPKhm.exit: ; preds = %entry, %if.end.i, %_ZN4node9inspector8protocol4json12_GLOBAL__N_110JsonParserIhE11HandleErrorENS1_5ErrorEPKh.exit.i
  call void @llvm.lifetime.end.p0(i64 8, ptr nonnull %tokenEnd.i)
  ret void
}